target datalayout = "e-m:e-p270:32:32-p271:32:32-p272:64:64-i64:64-i128:128-f80:128-n8:16:32:64-S128"
target triple = "x86_64-pc-linux-gnu"

%struct.sqlca_t = type { [8 x i8], i64, i64, %struct.anon, [8 x i8], [6 x i64], [8 x i8], [5 x i8] }
%struct.anon = type { i32, [150 x i8] }

@.str = private unnamed_addr constant [14 x i8] c"out of memory\00", align 1
@stderr = external global ptr, align 8
@.str.39 = private unnamed_addr constant [15 x i8] c"SQL error: %s\0A\00", align 1

; Function Attrs: nounwind uwtable
define void @sqlprint() #0 {
  %1 = alloca ptr, align 8
  %2 = alloca i32, align 4
  call void @llvm.lifetime.start.p0(i64 8, ptr %1) #5
  %3 = call ptr @ECPGget_sqlca()
  store ptr %3, ptr %1, align 8
  %4 = load ptr, ptr %1, align 8
  %5 = icmp eq ptr %4, null
  br i1 %5, label %6, label %7

6:                                                ; preds = %0
  call void (ptr, ...) @ecpg_log(ptr noundef @.str)
  store i32 1, ptr %2, align 4
  br label %23

7:                                                ; preds = %0
  %8 = load ptr, ptr %1, align 8
  %9 = getelementptr inbounds nuw %struct.sqlca_t, ptr %8, i32 0, i32 3
  %10 = getelementptr inbounds nuw %struct.anon, ptr %9, i32 0, i32 1
  %11 = load ptr, ptr %1, align 8
  %12 = getelementptr inbounds nuw %struct.sqlca_t, ptr %11, i32 0, i32 3
  %13 = getelementptr inbounds nuw %struct.anon, ptr %12, i32 0, i32 0
  %14 = load i32, ptr %13, align 8
  %15 = sext i32 %14 to i64
  %16 = getelementptr inbounds [150 x i8], ptr %10, i64 0, i64 %15
  store i8 0, ptr %16, align 1
  %17 = load ptr, ptr @stderr, align 8
  %18 = load ptr, ptr %1, align 8
  %19 = getelementptr inbounds nuw %struct.sqlca_t, ptr %18, i32 0, i32 3
  %20 = getelementptr inbounds nuw %struct.anon, ptr %19, i32 0, i32 1
  %21 = getelementptr inbounds [150 x i8], ptr %20, i64 0, i64 0
  %22 = call i32 (ptr, ptr, ...) @pg_fprintf(ptr noundef %17, ptr noundef @.str.39, ptr noundef %21)
  store i32 0, ptr %2, align 4
  br label %23

23:                                               ; preds = %7, %6
  call void @llvm.lifetime.end.p0(i64 8, ptr %1) #5
  %24 = load i32, ptr %2, align 4
  switch i32 %24, label %26 [
    i32 0, label %25
    i32 1, label %25
  ]

25:                                               ; preds = %23, %23
  ret void

26:                                               ; preds = %23
  unreachable
}