; Function Attrs: nounwind uwtable
define void @sqlprint() local_unnamed_addr #0 {
  %1 = tail call ptr @ECPGget_sqlca() #5
  %2 = icmp eq ptr %1, null
  br i1 %2, label %3, label %4

3:                                                ; preds = %0
  tail call void (ptr, ...) @ecpg_log(ptr noundef nonnull @.str) #5
  br label %12

4:                                                ; preds = %0
  %5 = getelementptr inbounds nuw i8, ptr %1, i64 24
  %6 = getelementptr inbounds nuw i8, ptr %1, i64 28
  %7 = load i32, ptr %5, align 8
  %8 = sext i32 %7 to i64
  %9 = getelementptr inbounds [150 x i8], ptr %6, i64 0, i64 %8
  store i8 0, ptr %9, align 1
  %10 = load ptr, ptr @stderr, align 8
  %11 = tail call i32 (ptr, ptr, ...) @pg_fprintf(ptr noundef %10, ptr noundef nonnull @.str.39, ptr noundef nonnull %6) #5
  br label %12

12:                                               ; preds = %4, %3
  ret void
}